target datalayout = "e-m:e-p270:32:32-p271:32:32-p272:64:64-i64:64-i128:128-f80:128-n8:16:32:64-S128"
target triple = "x86_64-pc-linux-gnu"

%class.QVariant = type { %"struct.QVariant::Private" }
%"struct.QVariant::Private" = type <{ %"union.QVariant::Private::Data", i32, [4 x i8] }>
%"union.QVariant::Private::Data" = type { i64 }
%class.QString = type { ptr }
%struct.QListData = type { ptr }
%class.RasterModel = type { %class.MeshLabRenderRaster, i8, i32, %class.QString }
%class.MeshLabRenderRaster = type { %"class.vcg::Shot", %class.QList.58, ptr }
%"class.vcg::Shot" = type { %"class.vcg::Camera", %"class.vcg::Shot<float>::ReferenceFrame" }
%"class.vcg::Camera" = type { float, %"class.vcg::Point2", %"class.vcg::Point2.56", %"class.vcg::Point2.56", %"class.vcg::Point2.56", %"struct.std::array", i32 }
%"class.vcg::Point2" = type { [2 x i32] }
%"class.vcg::Point2.56" = type { [2 x float] }
%"struct.std::array" = type { [4 x float] }
%"class.vcg::Shot<float>::ReferenceFrame" = type { %"class.vcg::Matrix44", %"class.vcg::Point3" }
%"class.vcg::Matrix44" = type { %"struct.std::array.57" }
%"struct.std::array.57" = type { [16 x float] }
%"class.vcg::Point3" = type { [3 x float] }
%class.QList.58 = type { %union.anon.60 }
%union.anon.60 = type { %struct.QListData }
%class.QTreeWidgetItem.base = type <{ ptr, i32, [4 x i8], %class.QVector, ptr, ptr, ptr, %class.QList, %class.QFlags.22 }>
%class.QVector = type { ptr }
%class.QList = type { %union.anon }
%union.anon = type { %struct.QListData }
%class.QFlags.22 = type { i32 }
%class.RasterTreeWidgetItem = type { %class.QTreeWidgetItem.base, i32 }
%class.QFileInfo = type { %class.QSharedDataPointer.228 }
%class.QSharedDataPointer.228 = type { ptr }

; Function Attrs: mustprogress uwtable
define linkonce_odr void @_ZN15QTreeWidgetItem7setTextEiRK7QString(ptr noundef nonnull align 8 dereferenceable(60) %0, i32 noundef %1, ptr noundef nonnull align 8 dereferenceable(8) %2) #5 comdat align 2 personality ptr @__gxx_personality_v0 {
  %4 = alloca ptr, align 8
  %5 = alloca i32, align 4
  %6 = alloca ptr, align 8
  %7 = alloca %class.QVariant, align 8
  %8 = alloca ptr, align 8
  %9 = alloca i32, align 4
  store ptr %0, ptr %4, align 8
  store i32 %1, ptr %5, align 4
  store ptr %2, ptr %6, align 8
  %10 = load ptr, ptr %4, align 8
  %11 = load i32, ptr %5, align 4
  %12 = load ptr, ptr %6, align 8
  call void @_ZN8QVariantC1ERK7QString(ptr noundef nonnull align 8 dereferenceable(16) %7, ptr noundef nonnull align 8 dereferenceable(8) %12)
  %13 = load ptr, ptr %10, align 8
  %14 = getelementptr inbounds ptr, ptr %13, i64 4
  %15 = load ptr, ptr %14, align 8
  invoke void %15(ptr noundef nonnull align 8 dereferenceable(60) %10, i32 noundef %11, i32 noundef 0, ptr noundef nonnull align 8 dereferenceable(16) %7)
          to label %16 unwind label %17

16:                                               ; preds = %3
  call void @_ZN8QVariantD1Ev(ptr noundef nonnull align 8 dereferenceable(16) %7) #4
  ret void

17:                                               ; preds = %3
  %18 = landingpad { ptr, i32 }
          cleanup
  %19 = extractvalue { ptr, i32 } %18, 0
  store ptr %19, ptr %8, align 8
  %20 = extractvalue { ptr, i32 } %18, 1
  store i32 %20, ptr %9, align 4
  call void @_ZN8QVariantD1Ev(ptr noundef nonnull align 8 dereferenceable(16) %7) #4
  br label %21

21:                                               ; preds = %17
  %22 = load ptr, ptr %8, align 8
  %23 = load i32, ptr %9, align 4
  %24 = insertvalue { ptr, i32 } poison, ptr %22, 0
  %25 = insertvalue { ptr, i32 } %24, i32 %23, 1
  resume { ptr, i32 } %25
}

; Function Attrs: mustprogress nounwind uwtable
define linkonce_odr noundef i32 @_ZNK11RasterModel2idEv(ptr noundef nonnull align 8 dereferenceable(168) %0) #0 comdat align 2 {
  %2 = alloca ptr, align 8
  store ptr %0, ptr %2, align 8
  %3 = load ptr, ptr %2, align 8
  %4 = getelementptr inbounds %class.RasterModel, ptr %3, i32 0, i32 2
  %5 = load i32, ptr %4, align 4
  ret i32 %5
}

; Function Attrs: mustprogress nounwind uwtable
define linkonce_odr noundef zeroext i1 @_ZNK11RasterModel9isVisibleEv(ptr noundef nonnull align 8 dereferenceable(168) %0) #0 comdat align 2 {
  %2 = alloca ptr, align 8
  store ptr %0, ptr %2, align 8
  %3 = load ptr, ptr %2, align 8
  %4 = getelementptr inbounds %class.RasterModel, ptr %3, i32 0, i32 1
  %5 = load i8, ptr %4, align 8
  %6 = trunc i8 %5 to i1
  ret i1 %6
}

; Function Attrs: mustprogress uwtable
define void @_ZN20RasterTreeWidgetItemC2EP11RasterModel(ptr noundef nonnull align 8 dereferenceable(64) %0, ptr noundef %1) unnamed_addr #5 align 2 personality ptr @__gxx_personality_v0 {
  %3 = alloca ptr, align 8
  %4 = alloca ptr, align 8
  %5 = alloca ptr, align 8
  %6 = alloca i32, align 4
  %7 = alloca %class.QString, align 8
  %8 = alloca %class.QFileInfo, align 8
  %9 = alloca %class.QString, align 8
  %10 = alloca %class.QString, align 8
  store ptr %0, ptr %3, align 8
  store ptr %1, ptr %4, align 8
  %11 = load ptr, ptr %3, align 8
  call void @_ZN15QTreeWidgetItemC2Ei(ptr noundef nonnull align 8 dereferenceable(60) %11, i32 noundef 0)
  store ptr getelementptr inbounds ({ [10 x ptr] }, ptr @_ZTV20RasterTreeWidgetItem, i32 0, i32 0, i32 2), ptr %11, align 8
  %12 = load ptr, ptr %4, align 8
  %13 = icmp ne ptr %12, null
  br i1 %13, label %14, label %51

14:                                               ; preds = %2
  %15 = load ptr, ptr %4, align 8
  %16 = call noundef zeroext i1 @_ZNK11RasterModel9isVisibleEv(ptr noundef nonnull align 8 dereferenceable(168) %15)
  invoke void @_ZN20RasterTreeWidgetItem20updateVisibilityIconEb(ptr noundef nonnull align 8 dereferenceable(64) %11, i1 noundef zeroext %16)
          to label %17 unwind label %30

17:                                               ; preds = %14
  %18 = load ptr, ptr %4, align 8
  %19 = call noundef i32 @_ZNK11RasterModel2idEv(ptr noundef nonnull align 8 dereferenceable(168) %18)
  invoke void @_ZN7QString6numberEji(ptr dead_on_unwind writable sret(%class.QString) align 8 %7, i32 noundef %19, i32 noundef 10)
          to label %20 unwind label %30

20:                                               ; preds = %17
  invoke void @_ZN15QTreeWidgetItem7setTextEiRK7QString(ptr noundef nonnull align 8 dereferenceable(60) %11, i32 noundef 1, ptr noundef nonnull align 8 dereferenceable(8) %7)
          to label %21 unwind label %34

21:                                               ; preds = %20
  call void @_ZN7QStringD2Ev(ptr noundef nonnull align 8 dereferenceable(8) %7) #4
  %22 = load ptr, ptr %4, align 8
  invoke void @_ZNK11RasterModel5labelEv(ptr dead_on_unwind writable sret(%class.QString) align 8 %9, ptr noundef nonnull align 8 dereferenceable(168) %22)
          to label %23 unwind label %30

23:                                               ; preds = %21
  invoke void @_ZN9QFileInfoC1ERK7QString(ptr noundef nonnull align 8 dereferenceable(8) %8, ptr noundef nonnull align 8 dereferenceable(8) %9)
          to label %24 unwind label %38

24:                                               ; preds = %23
  call void @_ZN7QStringD2Ev(ptr noundef nonnull align 8 dereferenceable(8) %9) #4
  invoke void @_ZNK9QFileInfo8fileNameEv(ptr dead_on_unwind writable sret(%class.QString) align 8 %10, ptr noundef nonnull align 8 dereferenceable(8) %8)
          to label %25 unwind label %42

25:                                               ; preds = %24
  invoke void @_ZN15QTreeWidgetItem7setTextEiRK7QString(ptr noundef nonnull align 8 dereferenceable(60) %11, i32 noundef 2, ptr noundef nonnull align 8 dereferenceable(8) %10)
          to label %26 unwind label %46

26:                                               ; preds = %25
  %27 = load ptr, ptr %4, align 8
  %28 = call noundef i32 @_ZNK11RasterModel2idEv(ptr noundef nonnull align 8 dereferenceable(168) %27)
  %29 = getelementptr inbounds %class.RasterTreeWidgetItem, ptr %11, i32 0, i32 1
  store i32 %28, ptr %29, align 4
  call void @_ZN7QStringD2Ev(ptr noundef nonnull align 8 dereferenceable(8) %10) #4
  call void @_ZN9QFileInfoD1Ev(ptr noundef nonnull align 8 dereferenceable(8) %8) #4
  br label %51

30:                                               ; preds = %21, %17, %14
  %31 = landingpad { ptr, i32 }
          cleanup
  %32 = extractvalue { ptr, i32 } %31, 0
  store ptr %32, ptr %5, align 8
  %33 = extractvalue { ptr, i32 } %31, 1
  store i32 %33, ptr %6, align 4
  br label %52

34:                                               ; preds = %20
  %35 = landingpad { ptr, i32 }
          cleanup
  %36 = extractvalue { ptr, i32 } %35, 0
  store ptr %36, ptr %5, align 8
  %37 = extractvalue { ptr, i32 } %35, 1
  store i32 %37, ptr %6, align 4
  call void @_ZN7QStringD2Ev(ptr noundef nonnull align 8 dereferenceable(8) %7) #4
  br label %52

38:                                               ; preds = %23
  %39 = landingpad { ptr, i32 }
          cleanup
  %40 = extractvalue { ptr, i32 } %39, 0
  store ptr %40, ptr %5, align 8
  %41 = extractvalue { ptr, i32 } %39, 1
  store i32 %41, ptr %6, align 4
  call void @_ZN7QStringD2Ev(ptr noundef nonnull align 8 dereferenceable(8) %9) #4
  br label %52

42:                                               ; preds = %24
  %43 = landingpad { ptr, i32 }
          cleanup
  %44 = extractvalue { ptr, i32 } %43, 0
  store ptr %44, ptr %5, align 8
  %45 = extractvalue { ptr, i32 } %43, 1
  store i32 %45, ptr %6, align 4
  br label %50

46:                                               ; preds = %25
  %47 = landingpad { ptr, i32 }
          cleanup
  %48 = extractvalue { ptr, i32 } %47, 0
  store ptr %48, ptr %5, align 8
  %49 = extractvalue { ptr, i32 } %47, 1
  store i32 %49, ptr %6, align 4
  call void @_ZN7QStringD2Ev(ptr noundef nonnull align 8 dereferenceable(8) %10) #4
  br label %50

50:                                               ; preds = %46, %42
  call void @_ZN9QFileInfoD1Ev(ptr noundef nonnull align 8 dereferenceable(8) %8) #4
  br label %52

51:                                               ; preds = %26, %2
  ret void

52:                                               ; preds = %50, %38, %34, %30
  call void @_ZN15QTreeWidgetItemD2Ev(ptr noundef nonnull align 8 dereferenceable(60) %11) #4
  br label %53

53:                                               ; preds = %52
  %54 = load ptr, ptr %5, align 8
  %55 = load i32, ptr %6, align 4
  %56 = insertvalue { ptr, i32 } poison, ptr %54, 0
  %57 = insertvalue { ptr, i32 } %56, i32 %55, 1
  resume { ptr, i32 } %57
}