; Function Attrs: mustprogress uwtable
define void @_ZN20RasterTreeWidgetItemC2EP11RasterModel(ptr noundef nonnull align 8 dereferenceable(64) %0, ptr noundef %1) unnamed_addr #9 align 2 personality ptr @__gxx_personality_v0 {
  %3 = alloca %class.QVariant, align 8
  %4 = alloca %class.QVariant, align 8
  %5 = alloca %class.QString, align 8
  %6 = alloca %class.QFileInfo, align 8
  %7 = alloca %class.QString, align 8
  %8 = alloca %class.QString, align 8
  tail call void @_ZN15QTreeWidgetItemC2Ei(ptr noundef nonnull align 8 dereferenceable(60) %0, i32 noundef 0)
  store ptr getelementptr inbounds ({ [10 x ptr] }, ptr @_ZTV20RasterTreeWidgetItem, i64 0, i32 0, i64 2), ptr %0, align 8
  %.not = icmp eq ptr %1, null
  br i1 %.not, label %58, label %9

9:                                                ; preds = %2
  %10 = getelementptr inbounds i8, ptr %1, i64 152
  %11 = load i8, ptr %10, align 8
  %12 = and i8 %11, 1
  %13 = icmp ne i8 %12, 0
  invoke void @_ZN20RasterTreeWidgetItem20updateVisibilityIconEb(ptr noundef nonnull align 8 dereferenceable(64) %0, i1 noundef zeroext %13)
          to label %14 unwind label %47

14:                                               ; preds = %9
  %15 = getelementptr inbounds i8, ptr %1, i64 156
  %16 = load i32, ptr %15, align 4
  invoke void @_ZN7QString6numberEji(ptr dead_on_unwind nonnull writable sret(%class.QString) align 8 %5, i32 noundef %16, i32 noundef 10)
          to label %17 unwind label %47

17:                                               ; preds = %14
  call void @llvm.lifetime.start.p0(i64 16, ptr nonnull %4)
  invoke void @_ZN8QVariantC1ERK7QString(ptr noundef nonnull align 8 dereferenceable(16) %4, ptr noundef nonnull align 8 dereferenceable(8) %5)
          to label %.noexc unwind label %49

.noexc:                                           ; preds = %17
  %18 = load ptr, ptr %0, align 8
  %19 = getelementptr inbounds i8, ptr %18, i64 32
  %20 = load ptr, ptr %19, align 8
  invoke void %20(ptr noundef nonnull align 8 dereferenceable(60) %0, i32 noundef 1, i32 noundef 0, ptr noundef nonnull align 8 dereferenceable(16) %4)
          to label %23 unwind label %21

21:                                               ; preds = %.noexc
  %22 = landingpad { ptr, i32 }
          cleanup
  call void @_ZN8QVariantD1Ev(ptr noundef nonnull align 8 dereferenceable(16) %4) #22
  br label %.body

23:                                               ; preds = %.noexc
  call void @_ZN8QVariantD1Ev(ptr noundef nonnull align 8 dereferenceable(16) %4) #22
  call void @llvm.lifetime.end.p0(i64 16, ptr nonnull %4)
  %24 = load ptr, ptr %5, align 8
  %25 = load atomic i32, ptr %24 monotonic, align 4
  switch i32 %25, label %_ZN9QtPrivate8RefCount5derefEv.exit.i [
    i32 0, label %_ZN9QtPrivate8RefCount5derefEv.exit.thread2.i
    i32 -1, label %_ZN7QStringD2Ev.exit
  ]

_ZN9QtPrivate8RefCount5derefEv.exit.i:            ; preds = %23
  %26 = atomicrmw sub ptr %24, i32 1 seq_cst, align 4
  %.not.i = icmp eq i32 %26, 1
  br i1 %.not.i, label %_ZN9QtPrivate8RefCount5derefEv.exit._ZN9QtPrivate8RefCount5derefEv.exit.thread2_crit_edge.i, label %_ZN7QStringD2Ev.exit

_ZN9QtPrivate8RefCount5derefEv.exit._ZN9QtPrivate8RefCount5derefEv.exit.thread2_crit_edge.i: ; preds = %_ZN9QtPrivate8RefCount5derefEv.exit.i
  %.pre.i = load ptr, ptr %5, align 8
  br label %_ZN9QtPrivate8RefCount5derefEv.exit.thread2.i

_ZN9QtPrivate8RefCount5derefEv.exit.thread2.i:    ; preds = %_ZN9QtPrivate8RefCount5derefEv.exit._ZN9QtPrivate8RefCount5derefEv.exit.thread2_crit_edge.i, %23
  %27 = phi ptr [ %.pre.i, %_ZN9QtPrivate8RefCount5derefEv.exit._ZN9QtPrivate8RefCount5derefEv.exit.thread2_crit_edge.i ], [ %24, %23 ]
  call void @_ZN10QArrayData10deallocateEPS_mm(ptr noundef %27, i64 noundef 2, i64 noundef 8) #22
  br label %_ZN7QStringD2Ev.exit

_ZN7QStringD2Ev.exit:                             ; preds = %23, %_ZN9QtPrivate8RefCount5derefEv.exit.i, %_ZN9QtPrivate8RefCount5derefEv.exit.thread2.i
  invoke void @_ZNK11RasterModel5labelEv(ptr dead_on_unwind nonnull writable sret(%class.QString) align 8 %7, ptr noundef nonnull align 8 dereferenceable(168) %1)
          to label %28 unwind label %47

28:                                               ; preds = %_ZN7QStringD2Ev.exit
  invoke void @_ZN9QFileInfoC1ERK7QString(ptr noundef nonnull align 8 dereferenceable(8) %6, ptr noundef nonnull align 8 dereferenceable(8) %7)
          to label %29 unwind label %51

29:                                               ; preds = %28
  %30 = load ptr, ptr %7, align 8
  %31 = load atomic i32, ptr %30 monotonic, align 4
  switch i32 %31, label %_ZN9QtPrivate8RefCount5derefEv.exit.i13 [
    i32 0, label %_ZN9QtPrivate8RefCount5derefEv.exit.thread2.i12
    i32 -1, label %_ZN7QStringD2Ev.exit17
  ]

_ZN9QtPrivate8RefCount5derefEv.exit.i13:          ; preds = %29
  %32 = atomicrmw sub ptr %30, i32 1 seq_cst, align 4
  %.not.i14 = icmp eq i32 %32, 1
  br i1 %.not.i14, label %_ZN9QtPrivate8RefCount5derefEv.exit._ZN9QtPrivate8RefCount5derefEv.exit.thread2_crit_edge.i15, label %_ZN7QStringD2Ev.exit17

_ZN9QtPrivate8RefCount5derefEv.exit._ZN9QtPrivate8RefCount5derefEv.exit.thread2_crit_edge.i15: ; preds = %_ZN9QtPrivate8RefCount5derefEv.exit.i13
  %.pre.i16 = load ptr, ptr %7, align 8
  br label %_ZN9QtPrivate8RefCount5derefEv.exit.thread2.i12

_ZN9QtPrivate8RefCount5derefEv.exit.thread2.i12:  ; preds = %_ZN9QtPrivate8RefCount5derefEv.exit._ZN9QtPrivate8RefCount5derefEv.exit.thread2_crit_edge.i15, %29
  %33 = phi ptr [ %.pre.i16, %_ZN9QtPrivate8RefCount5derefEv.exit._ZN9QtPrivate8RefCount5derefEv.exit.thread2_crit_edge.i15 ], [ %30, %29 ]
  call void @_ZN10QArrayData10deallocateEPS_mm(ptr noundef %33, i64 noundef 2, i64 noundef 8) #22
  br label %_ZN7QStringD2Ev.exit17

_ZN7QStringD2Ev.exit17:                           ; preds = %29, %_ZN9QtPrivate8RefCount5derefEv.exit.i13, %_ZN9QtPrivate8RefCount5derefEv.exit.thread2.i12
  invoke void @_ZNK9QFileInfo8fileNameEv(ptr dead_on_unwind nonnull writable sret(%class.QString) align 8 %8, ptr noundef nonnull align 8 dereferenceable(8) %6)
          to label %34 unwind label %53

34:                                               ; preds = %_ZN7QStringD2Ev.exit17
  call void @llvm.lifetime.start.p0(i64 16, ptr nonnull %3)
  invoke void @_ZN8QVariantC1ERK7QString(ptr noundef nonnull align 8 dereferenceable(16) %3, ptr noundef nonnull align 8 dereferenceable(8) %8)
          to label %.noexc18 unwind label %55

.noexc18:                                         ; preds = %34
  %35 = load ptr, ptr %0, align 8
  %36 = getelementptr inbounds i8, ptr %35, i64 32
  %37 = load ptr, ptr %36, align 8
  invoke void %37(ptr noundef nonnull align 8 dereferenceable(60) %0, i32 noundef 2, i32 noundef 0, ptr noundef nonnull align 8 dereferenceable(16) %3)
          to label %40 unwind label %38

38:                                               ; preds = %.noexc18
  %39 = landingpad { ptr, i32 }
          cleanup
  call void @_ZN8QVariantD1Ev(ptr noundef nonnull align 8 dereferenceable(16) %3) #22
  br label %.body19

40:                                               ; preds = %.noexc18
  call void @_ZN8QVariantD1Ev(ptr noundef nonnull align 8 dereferenceable(16) %3) #22
  call void @llvm.lifetime.end.p0(i64 16, ptr nonnull %3)
  %41 = load i32, ptr %15, align 4
  %42 = getelementptr inbounds i8, ptr %0, i64 60
  store i32 %41, ptr %42, align 4
  %43 = load ptr, ptr %8, align 8
  %44 = load atomic i32, ptr %43 monotonic, align 4
  switch i32 %44, label %_ZN9QtPrivate8RefCount5derefEv.exit.i23 [
    i32 0, label %_ZN9QtPrivate8RefCount5derefEv.exit.thread2.i22
    i32 -1, label %_ZN7QStringD2Ev.exit27
  ]

_ZN9QtPrivate8RefCount5derefEv.exit.i23:          ; preds = %40
  %45 = atomicrmw sub ptr %43, i32 1 seq_cst, align 4
  %.not.i24 = icmp eq i32 %45, 1
  br i1 %.not.i24, label %_ZN9QtPrivate8RefCount5derefEv.exit._ZN9QtPrivate8RefCount5derefEv.exit.thread2_crit_edge.i25, label %_ZN7QStringD2Ev.exit27

_ZN9QtPrivate8RefCount5derefEv.exit._ZN9QtPrivate8RefCount5derefEv.exit.thread2_crit_edge.i25: ; preds = %_ZN9QtPrivate8RefCount5derefEv.exit.i23
  %.pre.i26 = load ptr, ptr %8, align 8
  br label %_ZN9QtPrivate8RefCount5derefEv.exit.thread2.i22

_ZN9QtPrivate8RefCount5derefEv.exit.thread2.i22:  ; preds = %_ZN9QtPrivate8RefCount5derefEv.exit._ZN9QtPrivate8RefCount5derefEv.exit.thread2_crit_edge.i25, %40
  %46 = phi ptr [ %.pre.i26, %_ZN9QtPrivate8RefCount5derefEv.exit._ZN9QtPrivate8RefCount5derefEv.exit.thread2_crit_edge.i25 ], [ %43, %40 ]
  call void @_ZN10QArrayData10deallocateEPS_mm(ptr noundef %46, i64 noundef 2, i64 noundef 8) #22
  br label %_ZN7QStringD2Ev.exit27

_ZN7QStringD2Ev.exit27:                           ; preds = %40, %_ZN9QtPrivate8RefCount5derefEv.exit.i23, %_ZN9QtPrivate8RefCount5derefEv.exit.thread2.i22
  call void @_ZN9QFileInfoD1Ev(ptr noundef nonnull align 8 dereferenceable(8) %6) #22
  br label %58

47:                                               ; preds = %_ZN7QStringD2Ev.exit, %14, %9
  %48 = landingpad { ptr, i32 }
          cleanup
  br label %59

49:                                               ; preds = %17
  %50 = landingpad { ptr, i32 }
          cleanup
  br label %.body

.body:                                            ; preds = %21, %49
  %eh.lpad-body = phi { ptr, i32 } [ %50, %49 ], [ %22, %21 ]
  call void @_ZN7QStringD2Ev(ptr noundef nonnull align 8 dereferenceable(8) %5) #22
  br label %59

51:                                               ; preds = %28
  %52 = landingpad { ptr, i32 }
          cleanup
  call void @_ZN7QStringD2Ev(ptr noundef nonnull align 8 dereferenceable(8) %7) #22
  br label %59

53:                                               ; preds = %_ZN7QStringD2Ev.exit17
  %54 = landingpad { ptr, i32 }
          cleanup
  br label %57

55:                                               ; preds = %34
  %56 = landingpad { ptr, i32 }
          cleanup
  br label %.body19

.body19:                                          ; preds = %38, %55
  %eh.lpad-body20 = phi { ptr, i32 } [ %56, %55 ], [ %39, %38 ]
  call void @_ZN7QStringD2Ev(ptr noundef nonnull align 8 dereferenceable(8) %8) #22
  br label %57

57:                                               ; preds = %.body19, %53
  %.pn = phi { ptr, i32 } [ %eh.lpad-body20, %.body19 ], [ %54, %53 ]
  call void @_ZN9QFileInfoD1Ev(ptr noundef nonnull align 8 dereferenceable(8) %6) #22
  br label %59

58:                                               ; preds = %_ZN7QStringD2Ev.exit27, %2
  ret void

59:                                               ; preds = %57, %51, %.body, %47
  %.pn.pn = phi { ptr, i32 } [ %.pn, %57 ], [ %52, %51 ], [ %48, %47 ], [ %eh.lpad-body, %.body ]
  call void @_ZN15QTreeWidgetItemD2Ev(ptr noundef nonnull align 8 dereferenceable(60) %0) #22
  resume { ptr, i32 } %.pn.pn
}